; Function Attrs: nounwind uwtable
define internal void @close_after_write_cb(ptr noundef %0, ptr noundef %1) #0 {
  %3 = tail call ptr @bufferevent_get_output(ptr noundef %0) #9
  %4 = tail call i64 @evbuffer_get_length(ptr noundef %3) #9
  %5 = icmp eq i64 %4, 0
  br i1 %5, label %6, label %36

6:                                                ; preds = %2
  %7 = getelementptr inbounds nuw i8, ptr %1, i64 40
  %8 = load ptr, ptr %7, align 8
  %.not.i = icmp eq ptr %8, null
  br i1 %.not.i, label %12, label %9

9:                                                ; preds = %6
  %10 = getelementptr inbounds nuw i8, ptr %1, i64 48
  %11 = load ptr, ptr %10, align 8
  tail call void %8(ptr noundef nonnull %1, ptr noundef %11) #9
  br label %12

12:                                               ; preds = %9, %6
  %13 = getelementptr inbounds nuw i8, ptr %1, i64 56
  %14 = load ptr, ptr %13, align 8
  %.not23.i = icmp eq ptr %14, null
  br i1 %.not23.i, label %28, label %15

15:                                               ; preds = %12
  %16 = load ptr, ptr %1, align 8
  %.not24.i = icmp eq ptr %16, null
  %17 = getelementptr inbounds nuw i8, ptr %1, i64 8
  %18 = load ptr, ptr %17, align 8
  br i1 %.not24.i, label %21, label %19

19:                                               ; preds = %15
  %20 = getelementptr inbounds nuw i8, ptr %16, i64 8
  store ptr %18, ptr %20, align 8
  br label %23

21:                                               ; preds = %15
  %22 = getelementptr inbounds nuw i8, ptr %14, i64 72
  store ptr %18, ptr %22, align 8
  br label %23

23:                                               ; preds = %21, %19
  %24 = load ptr, ptr %1, align 8
  store ptr %24, ptr %18, align 8
  %25 = getelementptr inbounds nuw i8, ptr %14, i64 84
  %26 = load i32, ptr %25, align 4
  %27 = add nsw i32 %26, -1
  store i32 %27, ptr %25, align 4
  br label %28

28:                                               ; preds = %23, %12
  %29 = getelementptr inbounds nuw i8, ptr %1, i64 16
  %30 = load ptr, ptr %29, align 8
  %.not25.i = icmp eq ptr %30, null
  br i1 %.not25.i, label %32, label %31

31:                                               ; preds = %28
  tail call void @bufferevent_free(ptr noundef nonnull %30) #9
  br label %32

32:                                               ; preds = %31, %28
  %33 = getelementptr inbounds nuw i8, ptr %1, i64 64
  %34 = load ptr, ptr %33, align 8
  %.not26.i = icmp eq ptr %34, null
  br i1 %.not26.i, label %evws_connection_free.exit, label %35

35:                                               ; preds = %32
  tail call void @evbuffer_free(ptr noundef nonnull %34) #9
  br label %evws_connection_free.exit

evws_connection_free.exit:                        ; preds = %32, %35
  tail call void @event_mm_free_(ptr noundef nonnull %1) #9
  br label %36

36:                                               ; preds = %evws_connection_free.exit, %2
  ret void
}